(dp0
S'admin_dir_URL'
p1
S'https://gis1.servirglobal.net/arcgis/admin'
p2
sS'username'
p3
S'ARCGIS_USERNAME'
p4
sS'password'
p5
S'ARCGIS_PASSWORD'
p6
sS'folder_name'
p7
S'Global'
p8
sS'service_name'
p9
S'IMERG_Accumulations'
p10
sS'service_type'
p11
S'MapServer'
p12
sS'ftp_host'
p13
S'jsimpson.pps.eosdis.nasa.gov'
p14
sS'ftp_subfolder'
p13
S'data/imerg/gis'
p14
sS'ftp_user'
p15
S'YOUR_USERNAME'
p16
sS'ftp_pswrd'
p17
S'YOUR_PASSWORD'
p18
sS'mosaicDatasetPath'
p19
S'E:/SERVIR/DATA/Global/IMERG_SR3857.gdb'
p20
sS'DSNAME'
p21
S'IMERG'
p22
sS'geoDB'
p23
S'E:\\SERVIR\Data\\Global\\IMERG'
p24
sS'scratchFolder'
p25
S'Z:\\ETLscratch\\IMERG\\PostETL'
s.